target datalayout = "e-m:e-p270:32:32-p271:32:32-p272:64:64-i64:64-i128:128-f80:128-n8:16:32:64-S128"
target triple = "x86_64-pc-linux-gnu"

%struct._lv_indev_t = type { i32, ptr, i32, i32, i32, i8, i32, i32, ptr, ptr, ptr, ptr, i8, i8, i8, i8, i16, i16, i32, %struct.anon, %struct.anon.0, ptr, ptr, ptr, %struct.lv_event_list_t, ptr, i32, ptr }
%struct.anon = type { %struct.lv_point_t, %struct.lv_point_t, %struct.lv_point_t, %struct.lv_point_t, %struct.lv_point_t, %struct.lv_point_t, %struct.lv_point_t, ptr, ptr, ptr, ptr, ptr, %struct.lv_area_t, %struct.lv_point_t, i32, i8, %struct.lv_point_t, i32, i16 }
%struct.lv_area_t = type { i32, i32, i32, i32 }
%struct.lv_point_t = type { i32, i32 }
%struct.anon.0 = type { i32, i32 }
%struct.lv_event_list_t = type { %struct._lv_array_t, i8 }
%struct._lv_array_t = type { ptr, i32, i32, i32, i8 }

; Function Attrs: nounwind uwtable
define void @lv_indev_get_vect(ptr noundef %0, ptr noundef %1) #0 {
  %3 = alloca ptr, align 8
  %4 = alloca ptr, align 8
  store ptr %0, ptr %3, align 8, !tbaa !8
  store ptr %1, ptr %4, align 8, !tbaa !35
  %5 = load ptr, ptr %4, align 8, !tbaa !35
  %6 = getelementptr inbounds nuw %struct.lv_point_t, ptr %5, i32 0, i32 0
  store i32 0, ptr %6, align 4, !tbaa !124
  %7 = load ptr, ptr %4, align 8, !tbaa !35
  %8 = getelementptr inbounds nuw %struct.lv_point_t, ptr %7, i32 0, i32 1
  store i32 0, ptr %8, align 4, !tbaa !125
  %9 = load ptr, ptr %3, align 8, !tbaa !8
  %10 = icmp eq ptr %9, null
  br i1 %10, label %11, label %12

11:                                               ; preds = %2
  br label %37

12:                                               ; preds = %2
  %13 = load ptr, ptr %3, align 8, !tbaa !8
  %14 = getelementptr inbounds nuw %struct._lv_indev_t, ptr %13, i32 0, i32 0
  %15 = load i32, ptr %14, align 8, !tbaa !26
  %16 = icmp eq i32 %15, 1
  br i1 %16, label %22, label %17

17:                                               ; preds = %12
  %18 = load ptr, ptr %3, align 8, !tbaa !8
  %19 = getelementptr inbounds nuw %struct._lv_indev_t, ptr %18, i32 0, i32 0
  %20 = load i32, ptr %19, align 8, !tbaa !26
  %21 = icmp eq i32 %20, 3
  br i1 %21, label %22, label %37

22:                                               ; preds = %17, %12
  %23 = load ptr, ptr %3, align 8, !tbaa !8
  %24 = getelementptr inbounds nuw %struct._lv_indev_t, ptr %23, i32 0, i32 19
  %25 = getelementptr inbounds nuw %struct.anon, ptr %24, i32 0, i32 3
  %26 = getelementptr inbounds nuw %struct.lv_point_t, ptr %25, i32 0, i32 0
  %27 = load i32, ptr %26, align 8, !tbaa !135
  %28 = load ptr, ptr %4, align 8, !tbaa !35
  %29 = getelementptr inbounds nuw %struct.lv_point_t, ptr %28, i32 0, i32 0
  store i32 %27, ptr %29, align 4, !tbaa !124
  %30 = load ptr, ptr %3, align 8, !tbaa !8
  %31 = getelementptr inbounds nuw %struct._lv_indev_t, ptr %30, i32 0, i32 19
  %32 = getelementptr inbounds nuw %struct.anon, ptr %31, i32 0, i32 3
  %33 = getelementptr inbounds nuw %struct.lv_point_t, ptr %32, i32 0, i32 1
  %34 = load i32, ptr %33, align 4, !tbaa !136
  %35 = load ptr, ptr %4, align 8, !tbaa !35
  %36 = getelementptr inbounds nuw %struct.lv_point_t, ptr %35, i32 0, i32 1
  store i32 %34, ptr %36, align 4, !tbaa !125
  br label %37

37:                                               ; preds = %11, %22, %17
  ret void
}