; Function Attrs: mustprogress nofree norecurse nosync nounwind willreturn memory(argmem: readwrite) uwtable
define void @lv_indev_get_vect(ptr noundef readonly captures(address_is_null) %0, ptr noundef writeonly captures(none) initializes((0, 8)) %1) local_unnamed_addr #4 {
  store i32 0, ptr %1, align 4, !tbaa !116
  %3 = getelementptr inbounds nuw i8, ptr %1, i64 4
  store i32 0, ptr %3, align 4, !tbaa !117
  %4 = icmp eq ptr %0, null
  br i1 %4, label %12, label %5

5:                                                ; preds = %2
  %6 = load i32, ptr %0, align 8, !tbaa !23
  switch i32 %6, label %12 [
    i32 1, label %7
    i32 3, label %7
  ]

7:                                                ; preds = %5, %5
  %8 = getelementptr inbounds nuw i8, ptr %0, i64 112
  %9 = load i32, ptr %8, align 8, !tbaa !125
  store i32 %9, ptr %1, align 4, !tbaa !116
  %10 = getelementptr inbounds nuw i8, ptr %0, i64 116
  %11 = load i32, ptr %10, align 4, !tbaa !103
  store i32 %11, ptr %3, align 4, !tbaa !117
  br label %12

12:                                               ; preds = %5, %2, %7
  ret void
}